; Function Attrs: mustprogress uwtable
define dso_local noundef i32 @_ZN7cmState22StringToCacheEntryTypeERKNSt7__cxx1112basic_stringIcSt11char_traitsIcESaIcEEE(ptr noundef nonnull align 8 dereferenceable(32) %0) local_unnamed_addr #5 align 2 {
_ZN7cmState22StringToCacheEntryTypeERKNSt7__cxx1112basic_stringIcSt11char_traitsIcESaIcEEERN12cmStateEnums14CacheEntryTypeE.exit:
  %1 = tail call noundef ptr @_ZSt9__find_ifIPKNSt7__cxx1112basic_stringIcSt11char_traitsIcESaIcEEEN9__gnu_cxx5__ops16_Iter_equals_valIS6_EEET_SC_SC_T0_St26random_access_iterator_tag(ptr noundef nonnull @_ZL17cmCacheEntryTypesB5cxx11, ptr noundef nonnull getelementptr inbounds nuw (i8, ptr @_ZL17cmCacheEntryTypesB5cxx11, i64 224), ptr nonnull align 8 dereferenceable(32) %0)
  %.not.i.not = icmp eq ptr %1, getelementptr inbounds nuw (i8, ptr @_ZL17cmCacheEntryTypesB5cxx11, i64 224)
  %2 = ptrtoint ptr %1 to i64
  %3 = sub i64 %2, ptrtoint (ptr @_ZL17cmCacheEntryTypesB5cxx11 to i64)
  %4 = lshr exact i64 %3, 5
  %5 = trunc i64 %4 to i32
  %.0 = select i1 %.not.i.not, i32 3, i32 %5
  ret i32 %.0
}